target datalayout = "e-m:e-p270:32:32-p271:32:32-p272:64:64-i64:64-i128:128-f80:128-n8:16:32:64-S128"
target triple = "x86_64-pc-linux-gnu"

%"class.std::__cxx11::basic_string" = type { %"struct.std::__cxx11::basic_string<char>::_Alloc_hider", i64, %union.anon }
%"struct.std::__cxx11::basic_string<char>::_Alloc_hider" = type { ptr }
%union.anon = type { i64, [8 x i8] }
%"class.std::allocator.4" = type { i8 }

@.str.19 = private unnamed_addr constant [25 x i8] c"pragma synchronous = off\00", align 1
@.str.20 = private unnamed_addr constant [36 x i8] c"pragma main.journal_mode = truncate\00", align 1

; Function Attrs: mustprogress uwtable
define void @_ZN3nix6SQLite7isCacheEv(ptr noundef nonnull align 8 dereferenceable(8) %0) #3 align 2 personality ptr @__gxx_personality_v0 {
  %2 = alloca ptr, align 8
  %3 = alloca %"class.std::__cxx11::basic_string", align 8
  %4 = alloca %"class.std::allocator.4", align 1
  %5 = alloca ptr, align 8
  %6 = alloca i32, align 4
  %7 = alloca %"class.std::__cxx11::basic_string", align 8
  %8 = alloca %"class.std::allocator.4", align 1
  store ptr %0, ptr %2, align 8
  %9 = load ptr, ptr %2, align 8
  call void @_ZNSaIcEC1Ev(ptr noundef nonnull align 1 dereferenceable(1) %4) #1
  invoke void @_ZNSt7__cxx1112basic_stringIcSt11char_traitsIcESaIcEEC2IS3_EEPKcRKS3_(ptr noundef nonnull align 8 dereferenceable(32) %3, ptr noundef @.str.19, ptr noundef nonnull align 1 dereferenceable(1) %4)
          to label %10 unwind label %14

10:                                               ; preds = %1
  invoke void @_ZN3nix6SQLite4execERKNSt7__cxx1112basic_stringIcSt11char_traitsIcESaIcEEE(ptr noundef nonnull align 8 dereferenceable(8) %9, ptr noundef nonnull align 8 dereferenceable(32) %3)
          to label %11 unwind label %18

11:                                               ; preds = %10
  call void @_ZNSt7__cxx1112basic_stringIcSt11char_traitsIcESaIcEED2Ev(ptr noundef nonnull align 8 dereferenceable(32) %3) #1
  call void @_ZNSaIcED1Ev(ptr noundef nonnull align 1 dereferenceable(1) %4) #1
  call void @_ZNSaIcEC1Ev(ptr noundef nonnull align 1 dereferenceable(1) %8) #1
  invoke void @_ZNSt7__cxx1112basic_stringIcSt11char_traitsIcESaIcEEC2IS3_EEPKcRKS3_(ptr noundef nonnull align 8 dereferenceable(32) %7, ptr noundef @.str.20, ptr noundef nonnull align 1 dereferenceable(1) %8)
          to label %12 unwind label %23

12:                                               ; preds = %11
  invoke void @_ZN3nix6SQLite4execERKNSt7__cxx1112basic_stringIcSt11char_traitsIcESaIcEEE(ptr noundef nonnull align 8 dereferenceable(8) %9, ptr noundef nonnull align 8 dereferenceable(32) %7)
          to label %13 unwind label %27

13:                                               ; preds = %12
  call void @_ZNSt7__cxx1112basic_stringIcSt11char_traitsIcESaIcEED2Ev(ptr noundef nonnull align 8 dereferenceable(32) %7) #1
  call void @_ZNSaIcED1Ev(ptr noundef nonnull align 1 dereferenceable(1) %8) #1
  ret void

14:                                               ; preds = %1
  %15 = landingpad { ptr, i32 }
          cleanup
  %16 = extractvalue { ptr, i32 } %15, 0
  store ptr %16, ptr %5, align 8
  %17 = extractvalue { ptr, i32 } %15, 1
  store i32 %17, ptr %6, align 4
  br label %22

18:                                               ; preds = %10
  %19 = landingpad { ptr, i32 }
          cleanup
  %20 = extractvalue { ptr, i32 } %19, 0
  store ptr %20, ptr %5, align 8
  %21 = extractvalue { ptr, i32 } %19, 1
  store i32 %21, ptr %6, align 4
  call void @_ZNSt7__cxx1112basic_stringIcSt11char_traitsIcESaIcEED2Ev(ptr noundef nonnull align 8 dereferenceable(32) %3) #1
  br label %22

22:                                               ; preds = %18, %14
  call void @_ZNSaIcED1Ev(ptr noundef nonnull align 1 dereferenceable(1) %4) #1
  br label %32

23:                                               ; preds = %11
  %24 = landingpad { ptr, i32 }
          cleanup
  %25 = extractvalue { ptr, i32 } %24, 0
  store ptr %25, ptr %5, align 8
  %26 = extractvalue { ptr, i32 } %24, 1
  store i32 %26, ptr %6, align 4
  br label %31

27:                                               ; preds = %12
  %28 = landingpad { ptr, i32 }
          cleanup
  %29 = extractvalue { ptr, i32 } %28, 0
  store ptr %29, ptr %5, align 8
  %30 = extractvalue { ptr, i32 } %28, 1
  store i32 %30, ptr %6, align 4
  call void @_ZNSt7__cxx1112basic_stringIcSt11char_traitsIcESaIcEED2Ev(ptr noundef nonnull align 8 dereferenceable(32) %7) #1
  br label %31

31:                                               ; preds = %27, %23
  call void @_ZNSaIcED1Ev(ptr noundef nonnull align 1 dereferenceable(1) %8) #1
  br label %32

32:                                               ; preds = %31, %22
  %33 = load ptr, ptr %5, align 8
  %34 = load i32, ptr %6, align 4
  %35 = insertvalue { ptr, i32 } poison, ptr %33, 0
  %36 = insertvalue { ptr, i32 } %35, i32 %34, 1
  resume { ptr, i32 } %36
}